; ModuleID = 'source-C-CXX/28/1737.c'
source_filename = "source-C-CXX/28/1737.c"
target datalayout = "e-m:e-p270:32:32-p271:32:32-p272:64:64-i64:64-f80:128-n8:16:32:64-S128"
target triple = "x86_64-pc-linux-gnu"

@.str = private unnamed_addr constant [3 x i8] c"%d\00", align 1
@.str.1 = private unnamed_addr constant [7 x i8] c"%.3lf\0A\00", align 1

; Function Attrs: nofree nosync nounwind readnone sspstrong uwtable
define dso_local double @f(i32 %0) local_unnamed_addr #0 {
  switch i32 %0, label %5 [
    i32 1, label %3
    i32 2, label %2
  ]

2:                                                ; preds = %1
  br label %3

3:                                                ; preds = %2, %1, %5
  %4 = phi double [ %10, %5 ], [ 2.000000e+00, %2 ], [ 1.000000e+00, %1 ]
  ret double %4

5:                                                ; preds = %1
  %6 = add nsw i32 %0, -1
  %7 = tail call double @f(i32 %6)
  %8 = add nsw i32 %0, -2
  %9 = tail call double @f(i32 %8)
  %10 = fadd double %7, %9
  br label %3
}

; Function Attrs: argmemonly mustprogress nofree nosync nounwind willreturn
declare void @llvm.lifetime.start.p0i8(i64 immarg, i8* nocapture) #1

; Function Attrs: argmemonly mustprogress nofree nosync nounwind willreturn
declare void @llvm.lifetime.end.p0i8(i64 immarg, i8* nocapture) #1

; Function Attrs: nofree nounwind sspstrong uwtable
define dso_local i32 @main() local_unnamed_addr #2 {
  %1 = alloca i32, align 4
  %2 = alloca [1000 x i32], align 16
  %3 = alloca i32, align 4
  %4 = bitcast i32* %1 to i8*
  call void @llvm.lifetime.start.p0i8(i64 4, i8* nonnull %4) #4
  %5 = bitcast [1000 x i32]* %2 to i8*
  call void @llvm.lifetime.start.p0i8(i64 4000, i8* nonnull %5) #4
  %6 = bitcast i32* %3 to i8*
  call void @llvm.lifetime.start.p0i8(i64 4, i8* nonnull %6) #4
  %7 = call i32 (i8*, ...) @__isoc99_scanf(i8* getelementptr inbounds ([3 x i8], [3 x i8]* @.str, i64 0, i64 0), i32* nonnull %1)
  store i32 0, i32* %3, align 4, !tbaa !5
  %8 = load i32, i32* %1, align 4, !tbaa !5
  %9 = icmp sgt i32 %8, 0
  br i1 %9, label %10, label %32

10:                                               ; preds = %0, %26
  %11 = phi i32 [ %29, %26 ], [ 0, %0 ]
  %12 = zext i32 %11 to i64
  %13 = getelementptr inbounds [1000 x i32], [1000 x i32]* %2, i64 0, i64 %12
  %14 = call i32 (i8*, ...) @__isoc99_scanf(i8* getelementptr inbounds ([3 x i8], [3 x i8]* @.str, i64 0, i64 0), i32* nonnull %13)
  %15 = load i32, i32* %13, align 4, !tbaa !5
  %16 = icmp slt i32 %15, 1
  br i1 %16, label %26, label %17

17:                                               ; preds = %10, %17
  %18 = phi double [ %24, %17 ], [ 0.000000e+00, %10 ]
  %19 = phi i32 [ %20, %17 ], [ 1, %10 ]
  %20 = add nuw i32 %19, 1
  %21 = call double @f(i32 %20)
  %22 = call double @f(i32 %19)
  %23 = fdiv double %21, %22
  %24 = fadd double %18, %23
  %25 = icmp eq i32 %19, %15
  br i1 %25, label %26, label %17, !llvm.loop !9

26:                                               ; preds = %17, %10
  %27 = phi double [ 0.000000e+00, %10 ], [ %24, %17 ]
  %28 = call i32 (i8*, ...) @printf(i8* nonnull dereferenceable(1) getelementptr inbounds ([7 x i8], [7 x i8]* @.str.1, i64 0, i64 0), double %27)
  %29 = add nuw nsw i32 %11, 1
  store i32 %29, i32* %3, align 4, !tbaa !5
  %30 = load i32, i32* %1, align 4, !tbaa !5
  %31 = icmp slt i32 %29, %30
  br i1 %31, label %10, label %32, !llvm.loop !11

32:                                               ; preds = %26, %0
  %33 = call i32 (i8*, ...) @__isoc99_scanf(i8* getelementptr inbounds ([3 x i8], [3 x i8]* @.str, i64 0, i64 0), i32* nonnull %3)
  call void @llvm.lifetime.end.p0i8(i64 4, i8* nonnull %6) #4
  call void @llvm.lifetime.end.p0i8(i64 4000, i8* nonnull %5) #4
  call void @llvm.lifetime.end.p0i8(i64 4, i8* nonnull %4) #4
  ret i32 0
}

; Function Attrs: nofree nounwind
declare noundef i32 @__isoc99_scanf(i8* nocapture noundef readonly, ...) local_unnamed_addr #3

; Function Attrs: nofree nounwind
declare noundef i32 @printf(i8* nocapture noundef readonly, ...) local_unnamed_addr #3


!llvm.module.flags = !{!0, !1, !2, !3}
!llvm.ident = !{!4}

!0 = !{i32 1, !"wchar_size", i32 4}
!1 = !{i32 7, !"PIC Level", i32 2}
!2 = !{i32 7, !"PIE Level", i32 2}
!3 = !{i32 7, !"uwtable", i32 1}
!4 = !{!"clang version 13.0.0"}
!5 = !{!6, !6, i64 0}
!6 = !{!"int", !7, i64 0}
!7 = !{!"omnipotent char", !8, i64 0}
!8 = !{!"Simple C/C++ TBAA"}
!9 = distinct !{!9, !10}
!10 = !{!"llvm.loop.mustprogress"}
!11 = distinct !{!11, !10}
